; ModuleID = 'source-C-CXX/27/1342.c'
source_filename = "source-C-CXX/27/1342.c"
target datalayout = "e-m:e-p270:32:32-p271:32:32-p272:64:64-i64:64-f80:128-n8:16:32:64-S128"
target triple = "x86_64-pc-linux-gnu"

@.str = private unnamed_addr constant [3 x i8] c"%d\00", align 1

; Function Attrs: nounwind sspstrong uwtable
define dso_local i32 @main() local_unnamed_addr #0 {
  %1 = alloca [10000 x i8], align 16
  %2 = getelementptr inbounds [10000 x i8], [10000 x i8]* %1, i64 0, i64 0
  call void @llvm.lifetime.start.p0i8(i64 10000, i8* nonnull %2) #6
  %3 = call i32 (i8*, ...) bitcast (i32 (...)* @gets to i32 (i8*, ...)*)(i8* nonnull %2) #6
  %4 = call i64 @strlen(i8* noundef nonnull %2) #7
  %5 = trunc i64 %4 to i32
  %6 = icmp slt i32 %5, 0
  br i1 %6, label %37, label %7

7:                                                ; preds = %0, %32
  %8 = phi i32 [ %35, %32 ], [ 0, %0 ]
  %9 = phi i32 [ %33, %32 ], [ 0, %0 ]
  %10 = sext i32 %8 to i64
  %11 = getelementptr inbounds [10000 x i8], [10000 x i8]* %1, i64 0, i64 %10
  %12 = load i8, i8* %11, align 1, !tbaa !5
  switch i8 %12, label %30 [
    i8 32, label %13
    i8 0, label %13
  ]

13:                                               ; preds = %7, %7
  br label %14

14:                                               ; preds = %13, %14
  %15 = phi i64 [ %16, %14 ], [ %10, %13 ]
  %16 = add nsw i64 %15, 1
  %17 = getelementptr inbounds [10000 x i8], [10000 x i8]* %1, i64 0, i64 %16
  %18 = load i8, i8* %17, align 1, !tbaa !5
  %19 = icmp eq i8 %18, 32
  br i1 %19, label %14, label %20, !llvm.loop !8

20:                                               ; preds = %14
  %21 = trunc i64 %15 to i32
  %22 = call i32 (i8*, ...) @printf(i8* nonnull dereferenceable(1) getelementptr inbounds ([3 x i8], [3 x i8]* @.str, i64 0, i64 0), i32 %9)
  %23 = shl i64 %15, 32
  %24 = ashr exact i64 %23, 32
  %25 = getelementptr inbounds [10000 x i8], [10000 x i8]* %1, i64 0, i64 %24
  %26 = load i8, i8* %25, align 1, !tbaa !5
  %27 = icmp eq i8 %26, 0
  br i1 %27, label %32, label %28

28:                                               ; preds = %20
  %29 = call i32 @putchar(i32 44)
  br label %32

30:                                               ; preds = %7
  %31 = add nsw i32 %9, 1
  br label %32

32:                                               ; preds = %30, %28, %20
  %33 = phi i32 [ 0, %28 ], [ %9, %20 ], [ %31, %30 ]
  %34 = phi i32 [ %21, %28 ], [ %21, %20 ], [ %8, %30 ]
  %35 = add nsw i32 %34, 1
  %36 = icmp slt i32 %34, %5
  br i1 %36, label %7, label %37, !llvm.loop !10

37:                                               ; preds = %32, %0
  call void @llvm.lifetime.end.p0i8(i64 10000, i8* nonnull %2) #6
  ret i32 0
}

; Function Attrs: argmemonly mustprogress nofree nosync nounwind willreturn
declare void @llvm.lifetime.start.p0i8(i64 immarg, i8* nocapture) #1

declare i32 @gets(...) local_unnamed_addr #2

; Function Attrs: argmemonly mustprogress nofree nounwind readonly willreturn
declare i64 @strlen(i8* nocapture) local_unnamed_addr #3

; Function Attrs: nofree nounwind
declare noundef i32 @printf(i8* nocapture noundef readonly, ...) local_unnamed_addr #4

; Function Attrs: argmemonly mustprogress nofree nosync nounwind willreturn
declare void @llvm.lifetime.end.p0i8(i64 immarg, i8* nocapture) #1

; Function Attrs: nofree nounwind
declare noundef i32 @putchar(i32 noundef) local_unnamed_addr #5


!llvm.module.flags = !{!0, !1, !2, !3}
!llvm.ident = !{!4}

!0 = !{i32 1, !"wchar_size", i32 4}
!1 = !{i32 7, !"PIC Level", i32 2}
!2 = !{i32 7, !"PIE Level", i32 2}
!3 = !{i32 7, !"uwtable", i32 1}
!4 = !{!"clang version 13.0.0"}
!5 = !{!6, !6, i64 0}
!6 = !{!"omnipotent char", !7, i64 0}
!7 = !{!"Simple C/C++ TBAA"}
!8 = distinct !{!8, !9}
!9 = !{!"llvm.loop.mustprogress"}
!10 = distinct !{!10, !9}
